target datalayout = "e-m:e-p270:32:32-p271:32:32-p272:64:64-i64:64-i128:128-f80:128-n8:16:32:64-S128"
target triple = "x86_64-pc-linux-gnu"

%union.AVRefStructOpaque = type { ptr }
%struct.PlaneContext = type { i32, i32, ptr, ptr }

; Function Attrs: nounwind uwtable
define internal void @planes_free(ptr %0, ptr noundef %1) #1 {
  %3 = alloca %union.AVRefStructOpaque, align 8
  %4 = alloca ptr, align 8
  %5 = alloca ptr, align 8
  %6 = alloca i32, align 4
  %7 = alloca ptr, align 8
  %8 = getelementptr inbounds nuw %union.AVRefStructOpaque, ptr %3, i32 0, i32 0
  store ptr %0, ptr %8, align 8
  store ptr %1, ptr %4, align 8, !tbaa !46
  call void @llvm.lifetime.start.p0(i64 8, ptr %5) #9
  %9 = load ptr, ptr %4, align 8, !tbaa !46
  store ptr %9, ptr %5, align 8, !tbaa !48
  call void @llvm.lifetime.start.p0(i64 4, ptr %6) #9
  store i32 0, ptr %6, align 4, !tbaa !45
  br label %10

10:                                               ; preds = %23, %2
  %11 = load i32, ptr %6, align 4, !tbaa !45
  %12 = icmp slt i32 %11, 4
  br i1 %12, label %14, label %13

13:                                               ; preds = %10
  call void @llvm.lifetime.end.p0(i64 4, ptr %6) #9
  br label %26

14:                                               ; preds = %10
  call void @llvm.lifetime.start.p0(i64 8, ptr %7) #9
  %15 = load ptr, ptr %5, align 8, !tbaa !48
  %16 = load i32, ptr %6, align 4, !tbaa !45
  %17 = sext i32 %16 to i64
  %18 = getelementptr inbounds %struct.PlaneContext, ptr %15, i64 %17
  store ptr %18, ptr %7, align 8, !tbaa !48
  %19 = load ptr, ptr %7, align 8, !tbaa !48
  %20 = getelementptr inbounds nuw %struct.PlaneContext, ptr %19, i32 0, i32 2
  call void @av_freep(ptr noundef %20)
  %21 = load ptr, ptr %7, align 8, !tbaa !48
  %22 = getelementptr inbounds nuw %struct.PlaneContext, ptr %21, i32 0, i32 3
  call void @av_freep(ptr noundef %22)
  call void @llvm.lifetime.end.p0(i64 8, ptr %7) #9
  br label %23

23:                                               ; preds = %14
  %24 = load i32, ptr %6, align 4, !tbaa !45
  %25 = add nsw i32 %24, 1
  store i32 %25, ptr %6, align 4, !tbaa !45
  br label %10, !llvm.loop !50

26:                                               ; preds = %13
  call void @llvm.lifetime.end.p0(i64 8, ptr %5) #9
  ret void
}