; Function Attrs: nounwind uwtable
define internal void @planes_free(ptr readnone captures(none) %0, ptr noundef %1) #1 {
  br label %4

3:                                                ; preds = %4
  ret void

4:                                                ; preds = %2, %4
  %indvars.iv = phi i64 [ 0, %2 ], [ %indvars.iv.next, %4 ]
  %5 = getelementptr inbounds nuw %struct.PlaneContext, ptr %1, i64 %indvars.iv
  %6 = getelementptr inbounds nuw i8, ptr %5, i64 8
  tail call void @av_freep(ptr noundef nonnull %6) #12
  %7 = getelementptr inbounds nuw i8, ptr %5, i64 16
  tail call void @av_freep(ptr noundef nonnull %7) #12
  %indvars.iv.next = add nuw nsw i64 %indvars.iv, 1
  %exitcond.not = icmp eq i64 %indvars.iv.next, 4
  br i1 %exitcond.not, label %3, label %4, !llvm.loop !41
}